target datalayout = "e-m:e-p270:32:32-p271:32:32-p272:64:64-i64:64-i128:128-f80:128-n8:16:32:64-S128"
target triple = "x86_64-pc-linux-gnu"

; Function Attrs: mustprogress uwtable
define internal noundef i32 @_ZL14lua_loadstringP9lua_State(ptr noundef %0) #4 {
  %2 = alloca i32, align 4
  %3 = alloca ptr, align 8
  %4 = alloca i64, align 8
  %5 = alloca ptr, align 8
  %6 = alloca ptr, align 8
  %7 = alloca i64, align 8
  %8 = alloca ptr, align 8
  %9 = alloca i32, align 4
  store ptr %0, ptr %3, align 8
  store i64 0, ptr %4, align 8
  %10 = load ptr, ptr %3, align 8
  %11 = call noundef ptr @_Z17luaL_checklstringP9lua_StateiPm(ptr noundef %10, i32 noundef 1, ptr noundef %4)
  store ptr %11, ptr %5, align 8
  %12 = load ptr, ptr %3, align 8
  %13 = load ptr, ptr %5, align 8
  %14 = call noundef ptr @_Z15luaL_optlstringP9lua_StateiPKcPm(ptr noundef %12, i32 noundef 2, ptr noundef %13, ptr noundef null)
  store ptr %14, ptr %6, align 8
  %15 = load ptr, ptr %3, align 8
  call void @_Z14lua_setsafeenvP9lua_Stateii(ptr noundef %15, i32 noundef -10001, i32 noundef 0)
  store i64 0, ptr %7, align 8
  %16 = load ptr, ptr %5, align 8
  %17 = load i64, ptr %4, align 8
  %18 = call noundef ptr @_Z12luau_compilePKcmP18lua_CompileOptionsPm(ptr noundef %16, i64 noundef %17, ptr noundef null, ptr noundef %7)
  store ptr %18, ptr %8, align 8
  %19 = load ptr, ptr %3, align 8
  %20 = load ptr, ptr %6, align 8
  %21 = load ptr, ptr %8, align 8
  %22 = load i64, ptr %7, align 8
  %23 = call noundef i32 @_Z9luau_loadP9lua_StatePKcS2_mi(ptr noundef %19, ptr noundef %20, ptr noundef %21, i64 noundef %22, i32 noundef 0)
  store i32 %23, ptr %9, align 4
  %24 = load ptr, ptr %8, align 8
  call void @free(ptr noundef %24) #16
  %25 = load i32, ptr %9, align 4
  %26 = icmp eq i32 %25, 0
  br i1 %26, label %27, label %28

27:                                               ; preds = %1
  store i32 1, ptr %2, align 4
  br label %31

28:                                               ; preds = %1
  %29 = load ptr, ptr %3, align 8
  call void @_Z11lua_pushnilP9lua_State(ptr noundef %29)
  %30 = load ptr, ptr %3, align 8
  call void @_Z10lua_insertP9lua_Statei(ptr noundef %30, i32 noundef -2)
  store i32 2, ptr %2, align 4
  br label %31

31:                                               ; preds = %28, %27
  %32 = load i32, ptr %2, align 4
  ret i32 %32
}