; Function Attrs: mustprogress uwtable
define internal noundef range(i32 1, 3) i32 @_ZL14lua_loadstringP9lua_State(ptr noundef %0) #4 {
  %2 = alloca i64, align 8
  %3 = alloca i64, align 8
  store i64 0, ptr %2, align 8
  %4 = call noundef ptr @_Z17luaL_checklstringP9lua_StateiPm(ptr noundef %0, i32 noundef 1, ptr noundef nonnull %2)
  %5 = call noundef ptr @_Z15luaL_optlstringP9lua_StateiPKcPm(ptr noundef %0, i32 noundef 2, ptr noundef %4, ptr noundef null)
  call void @_Z14lua_setsafeenvP9lua_Stateii(ptr noundef %0, i32 noundef -10001, i32 noundef 0)
  store i64 0, ptr %3, align 8
  %6 = load i64, ptr %2, align 8
  %7 = call noundef ptr @_Z12luau_compilePKcmP18lua_CompileOptionsPm(ptr noundef %4, i64 noundef %6, ptr noundef null, ptr noundef nonnull %3)
  %8 = load i64, ptr %3, align 8
  %9 = call noundef i32 @_Z9luau_loadP9lua_StatePKcS2_mi(ptr noundef %0, ptr noundef %5, ptr noundef %7, i64 noundef %8, i32 noundef 0)
  call void @free(ptr noundef %7) #35
  %10 = icmp eq i32 %9, 0
  br i1 %10, label %12, label %11

11:                                               ; preds = %1
  call void @_Z11lua_pushnilP9lua_State(ptr noundef %0)
  call void @_Z10lua_insertP9lua_Statei(ptr noundef %0, i32 noundef -2)
  br label %12

12:                                               ; preds = %1, %11
  %.0 = phi i32 [ 2, %11 ], [ 1, %1 ]
  ret i32 %.0
}